; Function Attrs: mustprogress uwtable
define dso_local void @_ZNSt3__14__fs10filesystem16__symlink_statusERKNS1_4pathEPNS_10error_codeE(ptr dead_on_unwind noalias writable sret(%"class.std::__1::__fs::filesystem::file_status") align 4 %0, ptr noundef nonnull align 8 dereferenceable(24) %1, ptr noundef %2) local_unnamed_addr #0 {
  %4 = alloca %"class.std::__1::error_code", align 8
  %5 = alloca %struct.stat, align 8
  call void @llvm.lifetime.start.p0(i64 144, ptr nonnull %5) #28, !noalias !240
  call void @llvm.lifetime.start.p0(i64 16, ptr nonnull %4) #28, !noalias !243
  store i32 0, ptr %4, align 8, !tbaa !8, !noalias !243
  %6 = getelementptr inbounds nuw i8, ptr %4, i64 8
  %7 = tail call noundef nonnull align 8 dereferenceable(8) ptr @_ZNSt3__115system_categoryEv() #30
  store ptr %7, ptr %6, align 8, !tbaa !13, !noalias !243
  %8 = load i8, ptr %1, align 8, !noalias !243
  %9 = and i8 %8, 1
  %.not.i.i.i.i.i.i = icmp eq i8 %9, 0
  %10 = getelementptr inbounds nuw i8, ptr %1, i64 16
  %11 = load ptr, ptr %10, align 8, !noalias !243
  %12 = getelementptr inbounds nuw i8, ptr %1, i64 1
  %13 = select i1 %.not.i.i.i.i.i.i, ptr %12, ptr %11
  %14 = call i32 @lstat(ptr noundef %13, ptr noundef nonnull align 8 dereferenceable(144) %5) #28, !noalias !243
  %15 = icmp eq i32 %14, -1
  br i1 %15, label %16, label %_ZNSt3__14__fs10filesystem6detail11posix_lstatB8ne210000ERKNS1_4pathEPNS_10error_codeE.exit

16:                                               ; preds = %3
  %17 = tail call ptr @__errno_location() #30
  %18 = load i32, ptr %17, align 4, !tbaa !26, !noalias !243
  %19 = tail call noundef nonnull align 8 dereferenceable(8) ptr @_ZNSt3__116generic_categoryEv() #30
  store i32 %18, ptr %4, align 8, !tbaa !26, !noalias !243
  store ptr %19, ptr %6, align 8, !tbaa !28, !noalias !243
  br label %_ZNSt3__14__fs10filesystem6detail11posix_lstatB8ne210000ERKNS1_4pathEPNS_10error_codeE.exit

_ZNSt3__14__fs10filesystem6detail11posix_lstatB8ne210000ERKNS1_4pathEPNS_10error_codeE.exit: ; preds = %3, %16
  call void @_ZNSt3__14__fs10filesystem6detail18create_file_statusB8ne210000ERNS_10error_codeERKNS1_4pathERK4statPS3_(ptr dead_on_unwind writable sret(%"class.std::__1::__fs::filesystem::file_status") align 4 %0, ptr noundef nonnull align 8 dereferenceable(16) %4, ptr noundef nonnull align 8 dereferenceable(24) %1, ptr noundef nonnull align 8 dereferenceable(144) %5, ptr noundef %2)
  call void @llvm.lifetime.end.p0(i64 16, ptr nonnull %4) #28, !noalias !243
  call void @llvm.lifetime.end.p0(i64 144, ptr nonnull %5) #28, !noalias !240
  ret void
}